target datalayout = "e-m:e-p270:32:32-p271:32:32-p272:64:64-i64:64-i128:128-f80:128-n8:16:32:64-S128"
target triple = "x86_64-pc-linux-gnu"

%struct.SwsPass = type { ptr, ptr, i32, i32, i32, i32, i32, ptr, %struct.SwsImg, ptr, ptr, ptr }
%struct.SwsImg = type { i32, [4 x ptr], [4 x i32] }
%struct.SwsGraph = type { ptr, ptr, i32, i8, i8, ptr, i32, %struct.SwsContext, %struct.SwsFormat, %struct.SwsFormat, i32, %struct.anon }
%struct.SwsContext = type { ptr, ptr, i32, [2 x double], i32, i32, i32, i32, i32, i32, i32, i32, i32, i32, i32, i32, i32, i32, i32, i32, i32 }
%struct.SwsFormat = type { i32, i32, i32, i32, i32, i32, i32, ptr, %struct.SwsColor }
%struct.SwsColor = type { i32, i32, %struct.AVPrimaryCoefficients, %struct.AVRational, %struct.AVRational, %struct.AVRational, %struct.AVRational }
%struct.AVPrimaryCoefficients = type { %struct.AVCIExy, %struct.AVCIExy, %struct.AVCIExy }
%struct.AVCIExy = type { %struct.AVRational, %struct.AVRational }
%struct.AVRational = type { i32, i32 }
%struct.anon = type { ptr, %struct.SwsImg, %struct.SwsImg }

; Function Attrs: nounwind uwtable
define internal i32 @pass_alloc_output(ptr noundef %0) #0 {
  %2 = alloca i32, align 4
  %3 = alloca ptr, align 8
  store ptr %0, ptr %3, align 8, !tbaa !11
  %4 = load ptr, ptr %3, align 8, !tbaa !11
  %5 = icmp ne ptr %4, null
  br i1 %5, label %6, label %12

6:                                                ; preds = %1
  %7 = load ptr, ptr %3, align 8, !tbaa !11
  %8 = getelementptr inbounds nuw %struct.SwsPass, ptr %7, i32 0, i32 8
  %9 = getelementptr inbounds nuw %struct.SwsImg, ptr %8, i32 0, i32 0
  %10 = load i32, ptr %9, align 8, !tbaa !23
  %11 = icmp ne i32 %10, -1
  br i1 %11, label %12, label %13

12:                                               ; preds = %6, %1
  store i32 0, ptr %2, align 4
  br label %42

13:                                               ; preds = %6
  %14 = load ptr, ptr %3, align 8, !tbaa !11
  %15 = getelementptr inbounds nuw %struct.SwsPass, ptr %14, i32 0, i32 2
  %16 = load i32, ptr %15, align 8, !tbaa !19
  %17 = load ptr, ptr %3, align 8, !tbaa !11
  %18 = getelementptr inbounds nuw %struct.SwsPass, ptr %17, i32 0, i32 8
  %19 = getelementptr inbounds nuw %struct.SwsImg, ptr %18, i32 0, i32 0
  store i32 %16, ptr %19, align 8, !tbaa !23
  %20 = load ptr, ptr %3, align 8, !tbaa !11
  %21 = getelementptr inbounds nuw %struct.SwsPass, ptr %20, i32 0, i32 8
  %22 = getelementptr inbounds nuw %struct.SwsImg, ptr %21, i32 0, i32 1
  %23 = getelementptr inbounds [4 x ptr], ptr %22, i64 0, i64 0
  %24 = load ptr, ptr %3, align 8, !tbaa !11
  %25 = getelementptr inbounds nuw %struct.SwsPass, ptr %24, i32 0, i32 8
  %26 = getelementptr inbounds nuw %struct.SwsImg, ptr %25, i32 0, i32 2
  %27 = getelementptr inbounds [4 x i32], ptr %26, i64 0, i64 0
  %28 = load ptr, ptr %3, align 8, !tbaa !11
  %29 = getelementptr inbounds nuw %struct.SwsPass, ptr %28, i32 0, i32 3
  %30 = load i32, ptr %29, align 4, !tbaa !20
  %31 = load ptr, ptr %3, align 8, !tbaa !11
  %32 = getelementptr inbounds nuw %struct.SwsPass, ptr %31, i32 0, i32 6
  %33 = load i32, ptr %32, align 8, !tbaa !25
  %34 = load ptr, ptr %3, align 8, !tbaa !11
  %35 = getelementptr inbounds nuw %struct.SwsPass, ptr %34, i32 0, i32 5
  %36 = load i32, ptr %35, align 4, !tbaa !24
  %37 = mul nsw i32 %33, %36
  %38 = load ptr, ptr %3, align 8, !tbaa !11
  %39 = getelementptr inbounds nuw %struct.SwsPass, ptr %38, i32 0, i32 2
  %40 = load i32, ptr %39, align 8, !tbaa !19
  %41 = call i32 @av_image_alloc(ptr noundef %23, ptr noundef %27, i32 noundef %30, i32 noundef %37, i32 noundef %40, i32 noundef 64)
  store i32 %41, ptr %2, align 4
  br label %42

42:                                               ; preds = %13, %12
  %43 = load i32, ptr %2, align 4
  ret i32 %43
}

; Function Attrs: nounwind uwtable
define ptr @ff_sws_graph_add_pass(ptr noundef %0, i32 noundef %1, i32 noundef %2, i32 noundef %3, ptr noundef %4, i32 noundef %5, ptr noundef %6, ptr noundef %7) #0 {
  %9 = alloca ptr, align 8
  %10 = alloca ptr, align 8
  %11 = alloca i32, align 4
  %12 = alloca i32, align 4
  %13 = alloca i32, align 4
  %14 = alloca ptr, align 8
  %15 = alloca i32, align 4
  %16 = alloca ptr, align 8
  %17 = alloca ptr, align 8
  %18 = alloca i32, align 4
  %19 = alloca ptr, align 8
  %20 = alloca i32, align 4
  store ptr %0, ptr %10, align 8, !tbaa !4
  store i32 %1, ptr %11, align 4, !tbaa !9
  store i32 %2, ptr %12, align 4, !tbaa !9
  store i32 %3, ptr %13, align 4, !tbaa !9
  store ptr %4, ptr %14, align 8, !tbaa !11
  store i32 %5, ptr %15, align 4, !tbaa !9
  store ptr %6, ptr %16, align 8, !tbaa !13
  store ptr %7, ptr %17, align 8, !tbaa !13
  call void @llvm.lifetime.start.p0(i64 4, ptr %18) #11
  call void @llvm.lifetime.start.p0(i64 8, ptr %19) #11
  %21 = call noalias ptr @av_mallocz(i64 noundef 128)
  store ptr %21, ptr %19, align 8, !tbaa !11
  %22 = load ptr, ptr %19, align 8, !tbaa !11
  %23 = icmp ne ptr %22, null
  br i1 %23, label %25, label %24

24:                                               ; preds = %8
  store ptr null, ptr %9, align 8
  store i32 1, ptr %20, align 4
  br label %120

25:                                               ; preds = %8
  %26 = load ptr, ptr %10, align 8, !tbaa !4
  %27 = load ptr, ptr %19, align 8, !tbaa !11
  %28 = getelementptr inbounds nuw %struct.SwsPass, ptr %27, i32 0, i32 0
  store ptr %26, ptr %28, align 8, !tbaa !14
  %29 = load ptr, ptr %17, align 8, !tbaa !13
  %30 = load ptr, ptr %19, align 8, !tbaa !11
  %31 = getelementptr inbounds nuw %struct.SwsPass, ptr %30, i32 0, i32 1
  store ptr %29, ptr %31, align 8, !tbaa !17
  %32 = load ptr, ptr %16, align 8, !tbaa !13
  %33 = load ptr, ptr %19, align 8, !tbaa !11
  %34 = getelementptr inbounds nuw %struct.SwsPass, ptr %33, i32 0, i32 11
  store ptr %32, ptr %34, align 8, !tbaa !18
  %35 = load i32, ptr %11, align 4, !tbaa !9
  %36 = load ptr, ptr %19, align 8, !tbaa !11
  %37 = getelementptr inbounds nuw %struct.SwsPass, ptr %36, i32 0, i32 2
  store i32 %35, ptr %37, align 8, !tbaa !19
  %38 = load i32, ptr %12, align 4, !tbaa !9
  %39 = load ptr, ptr %19, align 8, !tbaa !11
  %40 = getelementptr inbounds nuw %struct.SwsPass, ptr %39, i32 0, i32 3
  store i32 %38, ptr %40, align 4, !tbaa !20
  %41 = load i32, ptr %13, align 4, !tbaa !9
  %42 = load ptr, ptr %19, align 8, !tbaa !11
  %43 = getelementptr inbounds nuw %struct.SwsPass, ptr %42, i32 0, i32 4
  store i32 %41, ptr %43, align 8, !tbaa !21
  %44 = load ptr, ptr %14, align 8, !tbaa !11
  %45 = load ptr, ptr %19, align 8, !tbaa !11
  %46 = getelementptr inbounds nuw %struct.SwsPass, ptr %45, i32 0, i32 7
  store ptr %44, ptr %46, align 8, !tbaa !22
  %47 = load ptr, ptr %19, align 8, !tbaa !11
  %48 = getelementptr inbounds nuw %struct.SwsPass, ptr %47, i32 0, i32 8
  %49 = getelementptr inbounds nuw %struct.SwsImg, ptr %48, i32 0, i32 0
  store i32 -1, ptr %49, align 8, !tbaa !23
  %50 = load ptr, ptr %14, align 8, !tbaa !11
  %51 = call i32 @pass_alloc_output(ptr noundef %50)
  store i32 %51, ptr %18, align 4, !tbaa !9
  %52 = load i32, ptr %18, align 4, !tbaa !9
  %53 = icmp slt i32 %52, 0
  br i1 %53, label %54, label %56

54:                                               ; preds = %25
  %55 = load ptr, ptr %19, align 8, !tbaa !11
  call void @av_free(ptr noundef %55)
  store ptr null, ptr %9, align 8
  store i32 1, ptr %20, align 4
  br label %120

56:                                               ; preds = %25
  %57 = load i32, ptr %15, align 4, !tbaa !9
  %58 = icmp ne i32 %57, 0
  br i1 %58, label %67, label %59

59:                                               ; preds = %56
  %60 = load ptr, ptr %19, align 8, !tbaa !11
  %61 = getelementptr inbounds nuw %struct.SwsPass, ptr %60, i32 0, i32 4
  %62 = load i32, ptr %61, align 8, !tbaa !21
  %63 = load ptr, ptr %19, align 8, !tbaa !11
  %64 = getelementptr inbounds nuw %struct.SwsPass, ptr %63, i32 0, i32 5
  store i32 %62, ptr %64, align 4, !tbaa !24
  %65 = load ptr, ptr %19, align 8, !tbaa !11
  %66 = getelementptr inbounds nuw %struct.SwsPass, ptr %65, i32 0, i32 6
  store i32 1, ptr %66, align 8, !tbaa !25
  br label %108

67:                                               ; preds = %56
  %68 = load ptr, ptr %19, align 8, !tbaa !11
  %69 = getelementptr inbounds nuw %struct.SwsPass, ptr %68, i32 0, i32 4
  %70 = load i32, ptr %69, align 8, !tbaa !21
  %71 = load ptr, ptr %10, align 8, !tbaa !4
  %72 = getelementptr inbounds nuw %struct.SwsGraph, ptr %71, i32 0, i32 2
  %73 = load i32, ptr %72, align 8, !tbaa !26
  %74 = add nsw i32 %70, %73
  %75 = sub nsw i32 %74, 1
  %76 = load ptr, ptr %10, align 8, !tbaa !4
  %77 = getelementptr inbounds nuw %struct.SwsGraph, ptr %76, i32 0, i32 2
  %78 = load i32, ptr %77, align 8, !tbaa !26
  %79 = sdiv i32 %75, %78
  %80 = load ptr, ptr %19, align 8, !tbaa !11
  %81 = getelementptr inbounds nuw %struct.SwsPass, ptr %80, i32 0, i32 5
  store i32 %79, ptr %81, align 4, !tbaa !24
  %82 = load ptr, ptr %19, align 8, !tbaa !11
  %83 = getelementptr inbounds nuw %struct.SwsPass, ptr %82, i32 0, i32 5
  %84 = load i32, ptr %83, align 4, !tbaa !24
  %85 = load i32, ptr %15, align 4, !tbaa !9
  %86 = add nsw i32 %84, %85
  %87 = sub nsw i32 %86, 1
  %88 = load i32, ptr %15, align 4, !tbaa !9
  %89 = sub nsw i32 %88, 1
  %90 = xor i32 %89, -1
  %91 = and i32 %87, %90
  %92 = load ptr, ptr %19, align 8, !tbaa !11
  %93 = getelementptr inbounds nuw %struct.SwsPass, ptr %92, i32 0, i32 5
  store i32 %91, ptr %93, align 4, !tbaa !24
  %94 = load ptr, ptr %19, align 8, !tbaa !11
  %95 = getelementptr inbounds nuw %struct.SwsPass, ptr %94, i32 0, i32 4
  %96 = load i32, ptr %95, align 8, !tbaa !21
  %97 = load ptr, ptr %19, align 8, !tbaa !11
  %98 = getelementptr inbounds nuw %struct.SwsPass, ptr %97, i32 0, i32 5
  %99 = load i32, ptr %98, align 4, !tbaa !24
  %100 = add nsw i32 %96, %99
  %101 = sub nsw i32 %100, 1
  %102 = load ptr, ptr %19, align 8, !tbaa !11
  %103 = getelementptr inbounds nuw %struct.SwsPass, ptr %102, i32 0, i32 5
  %104 = load i32, ptr %103, align 4, !tbaa !24
  %105 = sdiv i32 %101, %104
  %106 = load ptr, ptr %19, align 8, !tbaa !11
  %107 = getelementptr inbounds nuw %struct.SwsPass, ptr %106, i32 0, i32 6
  store i32 %105, ptr %107, align 8, !tbaa !25
  br label %108

108:                                              ; preds = %67, %59
  %109 = load ptr, ptr %10, align 8, !tbaa !4
  %110 = getelementptr inbounds nuw %struct.SwsGraph, ptr %109, i32 0, i32 5
  %111 = load ptr, ptr %10, align 8, !tbaa !4
  %112 = getelementptr inbounds nuw %struct.SwsGraph, ptr %111, i32 0, i32 6
  %113 = load ptr, ptr %19, align 8, !tbaa !11
  %114 = call i32 @av_dynarray_add_nofree(ptr noundef %110, ptr noundef %112, ptr noundef %113)
  store i32 %114, ptr %18, align 4, !tbaa !9
  %115 = load i32, ptr %18, align 4, !tbaa !9
  %116 = icmp slt i32 %115, 0
  br i1 %116, label %117, label %118

117:                                              ; preds = %108
  call void @av_freep(ptr noundef %19)
  br label %118

118:                                              ; preds = %117, %108
  %119 = load ptr, ptr %19, align 8, !tbaa !11
  store ptr %119, ptr %9, align 8
  store i32 1, ptr %20, align 4
  br label %120

120:                                              ; preds = %118, %54, %24
  call void @llvm.lifetime.end.p0(i64 8, ptr %19) #11
  call void @llvm.lifetime.end.p0(i64 4, ptr %18) #11
  %121 = load ptr, ptr %9, align 8
  ret ptr %121
}