; Function Attrs: nounwind uwtable
define ptr @ff_sws_graph_add_pass(ptr noundef %0, i32 noundef %1, i32 noundef %2, i32 noundef %3, ptr noundef %4, i32 noundef %5, ptr noundef %6, ptr noundef %7) local_unnamed_addr #0 {
  %9 = alloca ptr, align 8
  call void @llvm.lifetime.start.p0(i64 8, ptr nonnull %9) #12
  %10 = tail call noalias ptr @av_mallocz(i64 noundef 128) #12
  store ptr %10, ptr %9, align 8, !tbaa !4
  %.not = icmp eq ptr %10, null
  br i1 %.not, label %59, label %11

11:                                               ; preds = %8
  store ptr %0, ptr %10, align 8, !tbaa !9
  %12 = getelementptr inbounds nuw i8, ptr %10, i64 8
  store ptr %7, ptr %12, align 8, !tbaa !14
  %13 = getelementptr inbounds nuw i8, ptr %10, i64 120
  store ptr %6, ptr %13, align 8, !tbaa !15
  %14 = getelementptr inbounds nuw i8, ptr %10, i64 16
  store i32 %1, ptr %14, align 8, !tbaa !16
  %15 = getelementptr inbounds nuw i8, ptr %10, i64 20
  store i32 %2, ptr %15, align 4, !tbaa !17
  %16 = getelementptr inbounds nuw i8, ptr %10, i64 24
  store i32 %3, ptr %16, align 8, !tbaa !18
  %17 = getelementptr inbounds nuw i8, ptr %10, i64 40
  store ptr %4, ptr %17, align 8, !tbaa !19
  %18 = getelementptr inbounds nuw i8, ptr %10, i64 48
  store i32 -1, ptr %18, align 8, !tbaa !20
  %.not.i = icmp eq ptr %4, null
  br i1 %.not.i, label %pass_alloc_output.exit.thread, label %19

19:                                               ; preds = %11
  %20 = getelementptr inbounds nuw i8, ptr %4, i64 48
  %21 = load i32, ptr %20, align 8, !tbaa !20
  %.not11.i = icmp eq i32 %21, -1
  br i1 %.not11.i, label %pass_alloc_output.exit, label %pass_alloc_output.exit.thread

pass_alloc_output.exit:                           ; preds = %19
  %22 = getelementptr inbounds nuw i8, ptr %4, i64 16
  %23 = load i32, ptr %22, align 8, !tbaa !16
  store i32 %23, ptr %20, align 8, !tbaa !20
  %24 = getelementptr inbounds nuw i8, ptr %4, i64 56
  %25 = getelementptr inbounds nuw i8, ptr %4, i64 88
  %26 = getelementptr inbounds nuw i8, ptr %4, i64 20
  %27 = load i32, ptr %26, align 4, !tbaa !17
  %28 = getelementptr inbounds nuw i8, ptr %4, i64 32
  %29 = load i32, ptr %28, align 8, !tbaa !21
  %30 = getelementptr inbounds nuw i8, ptr %4, i64 28
  %31 = load i32, ptr %30, align 4, !tbaa !22
  %32 = mul nsw i32 %31, %29
  %33 = tail call i32 @av_image_alloc(ptr noundef nonnull %24, ptr noundef nonnull %25, i32 noundef %27, i32 noundef %32, i32 noundef %23, i32 noundef 64) #12
  %34 = icmp slt i32 %33, 0
  br i1 %34, label %35, label %pass_alloc_output.exit.thread

35:                                               ; preds = %pass_alloc_output.exit
  tail call void @av_free(ptr noundef nonnull %10) #12
  br label %59

pass_alloc_output.exit.thread:                    ; preds = %11, %19, %pass_alloc_output.exit
  %.not19 = icmp eq i32 %5, 0
  %36 = load i32, ptr %16, align 8, !tbaa !18
  br i1 %.not19, label %37, label %39

37:                                               ; preds = %pass_alloc_output.exit.thread
  %38 = getelementptr inbounds nuw i8, ptr %10, i64 28
  store i32 %36, ptr %38, align 4, !tbaa !22
  br label %52

39:                                               ; preds = %pass_alloc_output.exit.thread
  %40 = getelementptr inbounds nuw i8, ptr %0, i64 16
  %41 = load i32, ptr %40, align 8, !tbaa !23
  %42 = add i32 %36, -1
  %43 = add i32 %42, %41
  %44 = sdiv i32 %43, %41
  %45 = getelementptr inbounds nuw i8, ptr %10, i64 28
  %46 = add i32 %5, -1
  %47 = add i32 %46, %44
  %48 = sub i32 0, %5
  %49 = and i32 %47, %48
  store i32 %49, ptr %45, align 4, !tbaa !22
  %50 = add i32 %42, %49
  %51 = sdiv i32 %50, %49
  br label %52

52:                                               ; preds = %39, %37
  %.sink = phi i32 [ %51, %39 ], [ 1, %37 ]
  %53 = getelementptr inbounds nuw i8, ptr %10, i64 32
  store i32 %.sink, ptr %53, align 8, !tbaa !21
  %54 = getelementptr inbounds nuw i8, ptr %0, i64 24
  %55 = getelementptr inbounds nuw i8, ptr %0, i64 32
  %56 = tail call i32 @av_dynarray_add_nofree(ptr noundef nonnull %54, ptr noundef nonnull %55, ptr noundef nonnull %10) #12
  %57 = icmp slt i32 %56, 0
  br i1 %57, label %58, label %59

58:                                               ; preds = %52
  call void @av_freep(ptr noundef nonnull %9) #12
  %.pre = load ptr, ptr %9, align 8, !tbaa !4
  br label %59

59:                                               ; preds = %52, %58, %8, %35
  %.0 = phi ptr [ null, %35 ], [ null, %8 ], [ %.pre, %58 ], [ %10, %52 ]
  call void @llvm.lifetime.end.p0(i64 8, ptr nonnull %9) #12
  ret ptr %.0
}